; Function Attrs: nounwind uwtable
define hidden noundef i32 @lxb_html_tree_insert_character(ptr noundef %0, ptr nocapture noundef readonly %1, ptr noundef %2) local_unnamed_addr #0 {
  %4 = alloca %struct.lexbor_str_t, align 8
  call void @llvm.memset.p0.i64(ptr noundef nonnull align 8 dereferenceable(16) %4, i8 0, i64 16, i1 false)
  %5 = getelementptr inbounds i8, ptr %1, i64 40
  %6 = load ptr, ptr %5, align 8
  %7 = getelementptr inbounds i8, ptr %1, i64 32
  %8 = load ptr, ptr %7, align 8
  %9 = ptrtoint ptr %6 to i64
  %10 = ptrtoint ptr %8 to i64
  %11 = sub i64 %9, %10
  %12 = getelementptr inbounds i8, ptr %0, i64 8
  %13 = load ptr, ptr %12, align 8
  %14 = getelementptr inbounds i8, ptr %13, i64 192
  %15 = load ptr, ptr %14, align 8
  %16 = add i64 %11, 1
  %17 = call ptr @lexbor_str_init(ptr noundef nonnull %4, ptr noundef %15, i64 noundef %16) #9
  %18 = load ptr, ptr %4, align 8
  %19 = icmp eq ptr %18, null
  br i1 %19, label %26, label %20

20:                                               ; preds = %3
  %21 = load ptr, ptr %7, align 8
  call void @llvm.memcpy.p0.p0.i64(ptr nonnull align 1 %18, ptr align 1 %21, i64 %11, i1 false)
  %22 = load ptr, ptr %4, align 8
  %23 = getelementptr inbounds i8, ptr %22, i64 %11
  store i8 0, ptr %23, align 1
  %24 = getelementptr inbounds i8, ptr %4, i64 8
  store i64 %11, ptr %24, align 8
  %25 = call i32 @lxb_html_tree_insert_character_for_data(ptr noundef nonnull %0, ptr noundef nonnull %4, ptr noundef %2), !range !4
  br label %26

26:                                               ; preds = %20, %3
  %.0 = phi i32 [ 2, %3 ], [ %25, %20 ]
  ret i32 %.0
}